; Function Attrs: mustprogress uwtable
define void @_ZN6icu_779PCEBuffer3putEmiiR10UErrorCode(ptr noundef nonnull align 8 dereferenceable(272) %0, i64 noundef %1, i32 noundef %2, i32 noundef %3, ptr noundef nonnull align 4 captures(none) dereferenceable(4) %4) local_unnamed_addr #6 align 2 {
  %6 = load i32, ptr %4, align 4, !tbaa !12
  %7 = icmp slt i32 %6, 1
  br i1 %7, label %8, label %37

8:                                                ; preds = %5
  %9 = getelementptr inbounds nuw i8, ptr %0, i64 264
  %10 = load i32, ptr %9, align 8, !tbaa !21
  %11 = getelementptr inbounds nuw i8, ptr %0, i64 268
  %12 = load i32, ptr %11, align 4, !tbaa !22
  %.not12 = icmp slt i32 %10, %12
  br i1 %.not12, label %._crit_edge, label %13

._crit_edge:                                      ; preds = %8
  %.phi.trans.insert = getelementptr inbounds nuw i8, ptr %0, i64 256
  %.pre15 = load ptr, ptr %.phi.trans.insert, align 8, !tbaa !18
  br label %29

13:                                               ; preds = %8
  %14 = add nsw i32 %12, 8
  %15 = sext i32 %14 to i64
  %16 = shl nsw i64 %15, 4
  %17 = tail call noalias ptr @uprv_malloc_77(i64 noundef %16) #15
  %18 = icmp eq ptr %17, null
  br i1 %18, label %28, label %19

19:                                               ; preds = %13
  %20 = getelementptr inbounds nuw i8, ptr %0, i64 256
  %21 = load ptr, ptr %20, align 8, !tbaa !18
  %22 = load i32, ptr %11, align 4, !tbaa !22
  %23 = sext i32 %22 to i64
  %24 = shl nsw i64 %23, 4
  tail call void @llvm.memcpy.p0.p0.i64(ptr nonnull align 1 %17, ptr align 1 %21, i64 %24, i1 false)
  %.not13 = icmp eq ptr %21, %0
  br i1 %.not13, label %.thread, label %25

25:                                               ; preds = %19
  tail call void @uprv_free_77(ptr noundef %21)
  %.pre = load i32, ptr %11, align 4, !tbaa !22
  br label %.thread

.thread:                                          ; preds = %19, %25
  %26 = phi i32 [ %22, %19 ], [ %.pre, %25 ]
  store ptr %17, ptr %20, align 8, !tbaa !18
  %27 = add nsw i32 %26, 8
  store i32 %27, ptr %11, align 4, !tbaa !22
  %.pre16 = load i32, ptr %9, align 8, !tbaa !21
  br label %29

28:                                               ; preds = %13
  store i32 7, ptr %4, align 4, !tbaa !12
  br label %37

29:                                               ; preds = %._crit_edge, %.thread
  %30 = phi i32 [ %10, %._crit_edge ], [ %.pre16, %.thread ]
  %31 = phi ptr [ %.pre15, %._crit_edge ], [ %17, %.thread ]
  %32 = sext i32 %30 to i64
  %33 = getelementptr inbounds %"struct.icu_77::PCEI", ptr %31, i64 %32
  store i64 %1, ptr %33, align 8, !tbaa !23
  %34 = getelementptr inbounds %"struct.icu_77::PCEI", ptr %31, i64 %32, i32 1
  store i32 %2, ptr %34, align 8, !tbaa !26
  %35 = getelementptr inbounds %"struct.icu_77::PCEI", ptr %31, i64 %32, i32 2
  store i32 %3, ptr %35, align 4, !tbaa !27
  %36 = add nsw i32 %30, 1
  store i32 %36, ptr %9, align 8, !tbaa !21
  br label %37

37:                                               ; preds = %28, %5, %29
  ret void
}